target datalayout = "e-m:e-p270:32:32-p271:32:32-p272:64:64-i64:64-i128:128-f80:128-n8:16:32:64-S128"
target triple = "x86_64-pc-linux-gnu"

%struct.hb_segment_properties_t = type { i32, i32, ptr, ptr, ptr }
%struct.hb_buffer_t = type <{ %struct.hb_object_header_t, ptr, i32, i32, i32, i32, i32, i32, %struct.hb_segment_properties_t, i8, i8, i8, i8, i32, i32, i32, i32, [4 x i8], ptr, ptr, ptr, [2 x [5 x i32]], [2 x i32], i8, i8, [2 x i8], i32, i32, i32, ptr, ptr, ptr, i32, [4 x i8] }>
%struct.hb_object_header_t = type { %struct.hb_reference_count_t, %struct.hb_atomic_int_t, %struct.hb_atomic_ptr_t.2 }
%struct.hb_reference_count_t = type { %struct.hb_atomic_int_t }
%struct.hb_atomic_int_t = type { i32 }
%struct.hb_atomic_ptr_t.2 = type { ptr }
%struct.hb_glyph_info_t = type { i32, i32, i32, %union._hb_var_int_t, %union._hb_var_int_t }
%union._hb_var_int_t = type { i32 }

@.str.40 = private unnamed_addr constant [7 x i8] c"ARABIC\00", align 1
@.str.49 = private unnamed_addr constant [31 x i8] c"Reordering marks from %u to %u\00", align 1
@.str.50 = private unnamed_addr constant [32 x i8] c"Looking for %u's starting at %u\00", align 1
@.str.51 = private unnamed_addr constant [31 x i8] c"Looking for %u's stopped at %u\00", align 1
@.str.52 = private unnamed_addr constant [25 x i8] c"Found %u's from %u to %u\00", align 1
@.str.53 = private unnamed_addr constant [21 x i8] c"Shifting %u's: %u %u\00", align 1
@_ZL24modifier_combining_marks = internal global [14 x i32] [i32 1620, i32 1621, i32 1624, i32 1756, i32 1763, i32 1767, i32 1768, i32 2250, i32 2251, i32 2253, i32 2254, i32 2255, i32 2259, i32 2291], align 16

; Function Attrs: mustprogress nounwind uwtable
define internal noundef i32 @_ZL12ARRAY_LENGTHIjLj14EEjRAT0__KT_(ptr noundef nonnull align 4 dereferenceable(56) %0) #2 {
  %2 = alloca ptr, align 8
  store ptr %0, ptr %2, align 8
  ret i32 14
}

; Function Attrs: mustprogress nounwind uwtable
define internal noundef zeroext i1 @_ZL30_hb_glyph_info_is_unicode_markPK15hb_glyph_info_t(ptr noundef %0) #2 {
  %2 = alloca ptr, align 8
  store ptr %0, ptr %2, align 8
  %3 = load ptr, ptr %2, align 8
  %4 = getelementptr inbounds %struct.hb_glyph_info_t, ptr %3, i32 0, i32 4
  %5 = getelementptr inbounds [2 x i16], ptr %4, i64 0, i64 0
  %6 = load i16, ptr %5, align 4
  %7 = zext i16 %6 to i32
  %8 = and i32 %7, 31
  %9 = icmp ult i32 %8, 32
  br i1 %9, label %10, label %18

10:                                               ; preds = %1
  %11 = load ptr, ptr %2, align 8
  %12 = getelementptr inbounds %struct.hb_glyph_info_t, ptr %11, i32 0, i32 4
  %13 = getelementptr inbounds [2 x i16], ptr %12, i64 0, i64 0
  %14 = load i16, ptr %13, align 4
  %15 = zext i16 %14 to i32
  %16 = and i32 %15, 31
  %17 = shl i32 1, %16
  br label %19

18:                                               ; preds = %1
  br label %19

19:                                               ; preds = %18, %10
  %20 = phi i32 [ %17, %10 ], [ 0, %18 ]
  %21 = and i32 %20, 7168
  %22 = icmp ne i32 %21, 0
  ret i1 %22
}

; Function Attrs: mustprogress nounwind uwtable
define internal void @_ZL43_hb_glyph_info_set_modified_combining_classP15hb_glyph_info_tj(ptr noundef %0, i32 noundef %1) #2 {
  %3 = alloca ptr, align 8
  %4 = alloca i32, align 4
  store ptr %0, ptr %3, align 8
  store i32 %1, ptr %4, align 4
  %5 = load ptr, ptr %3, align 8
  %6 = call noundef zeroext i1 @_ZL30_hb_glyph_info_is_unicode_markPK15hb_glyph_info_t(ptr noundef %5)
  br i1 %6, label %8, label %7

7:                                                ; preds = %2
  br label %22

8:                                                ; preds = %2
  %9 = load i32, ptr %4, align 4
  %10 = shl i32 %9, 8
  %11 = load ptr, ptr %3, align 8
  %12 = getelementptr inbounds %struct.hb_glyph_info_t, ptr %11, i32 0, i32 4
  %13 = getelementptr inbounds [2 x i16], ptr %12, i64 0, i64 0
  %14 = load i16, ptr %13, align 4
  %15 = zext i16 %14 to i32
  %16 = and i32 %15, 255
  %17 = or i32 %10, %16
  %18 = trunc i32 %17 to i16
  %19 = load ptr, ptr %3, align 8
  %20 = getelementptr inbounds %struct.hb_glyph_info_t, ptr %19, i32 0, i32 4
  %21 = getelementptr inbounds [2 x i16], ptr %20, i64 0, i64 0
  store i16 %18, ptr %21, align 4
  br label %22

22:                                               ; preds = %8, %7
  ret void
}

; Function Attrs: mustprogress uwtable
define linkonce_odr hidden void @_ZN11hb_buffer_t14merge_clustersEjj(ptr noundef nonnull align 8 dereferenceable(220) %0, i32 noundef %1, i32 noundef %2) #0 comdat align 2 {
  %4 = alloca ptr, align 8
  %5 = alloca i32, align 4
  %6 = alloca i32, align 4
  store ptr %0, ptr %4, align 8
  store i32 %1, ptr %5, align 4
  store i32 %2, ptr %6, align 4
  %7 = load ptr, ptr %4, align 8
  %8 = load i32, ptr %6, align 4
  %9 = load i32, ptr %5, align 4
  %10 = sub i32 %8, %9
  %11 = icmp ult i32 %10, 2
  br i1 %11, label %12, label %13

12:                                               ; preds = %3
  br label %16

13:                                               ; preds = %3
  %14 = load i32, ptr %5, align 4
  %15 = load i32, ptr %6, align 4
  call void @_ZN11hb_buffer_t19merge_clusters_implEjj(ptr noundef nonnull align 8 dereferenceable(220) %7, i32 noundef %14, i32 noundef %15)
  br label %16

16:                                               ; preds = %13, %12
  ret void
}

; Function Attrs: mustprogress uwtable
define internal noundef zeroext i1 @_ZL11info_is_mcmRK15hb_glyph_info_t(ptr noundef nonnull align 4 dereferenceable(20) %0) #0 {
  %2 = alloca i1, align 1
  %3 = alloca ptr, align 8
  %4 = alloca i32, align 4
  %5 = alloca i32, align 4
  store ptr %0, ptr %3, align 8
  %6 = load ptr, ptr %3, align 8
  %7 = getelementptr inbounds %struct.hb_glyph_info_t, ptr %6, i32 0, i32 0
  %8 = load i32, ptr %7, align 4
  store i32 %8, ptr %4, align 4
  store i32 0, ptr %5, align 4
  br label %9

9:                                                ; preds = %22, %1
  %10 = load i32, ptr %5, align 4
  %11 = call noundef i32 @_ZL12ARRAY_LENGTHIjLj14EEjRAT0__KT_(ptr noundef nonnull align 4 dereferenceable(56) @_ZL24modifier_combining_marks)
  %12 = icmp ult i32 %10, %11
  br i1 %12, label %13, label %25

13:                                               ; preds = %9
  %14 = load i32, ptr %4, align 4
  %15 = load i32, ptr %5, align 4
  %16 = zext i32 %15 to i64
  %17 = getelementptr inbounds [14 x i32], ptr @_ZL24modifier_combining_marks, i64 0, i64 %16
  %18 = load i32, ptr %17, align 4
  %19 = icmp eq i32 %14, %18
  br i1 %19, label %20, label %21

20:                                               ; preds = %13
  store i1 true, ptr %2, align 1
  br label %26

21:                                               ; preds = %13
  br label %22

22:                                               ; preds = %21
  %23 = load i32, ptr %5, align 4
  %24 = add i32 %23, 1
  store i32 %24, ptr %5, align 4
  br label %9, !llvm.loop !177

25:                                               ; preds = %9
  store i1 false, ptr %2, align 1
  br label %26

26:                                               ; preds = %25, %20
  %27 = load i1, ptr %2, align 1
  ret i1 %27
}

; Function Attrs: mustprogress uwtable
define internal noundef i32 @_ZL43_hb_glyph_info_get_modified_combining_classPK15hb_glyph_info_t(ptr noundef %0) #0 {
  %2 = alloca ptr, align 8
  store ptr %0, ptr %2, align 8
  %3 = load ptr, ptr %2, align 8
  %4 = call noundef zeroext i1 @_ZL30_hb_glyph_info_is_unicode_markPK15hb_glyph_info_t(ptr noundef %3)
  br i1 %4, label %5, label %12

5:                                                ; preds = %1
  %6 = load ptr, ptr %2, align 8
  %7 = getelementptr inbounds %struct.hb_glyph_info_t, ptr %6, i32 0, i32 4
  %8 = getelementptr inbounds [2 x i16], ptr %7, i64 0, i64 0
  %9 = load i16, ptr %8, align 4
  %10 = zext i16 %9 to i32
  %11 = ashr i32 %10, 8
  br label %13

12:                                               ; preds = %1
  br label %13

13:                                               ; preds = %12, %5
  %14 = phi i32 [ %11, %5 ], [ 0, %12 ]
  ret i32 %14
}

; Function Attrs: mustprogress nounwind uwtable
define internal void @_ZL13_hb_debug_msgILi0EEvPKcPKvS1_bjiS1_z(ptr noundef %0, ptr noundef %1, ptr noundef %2, i1 noundef zeroext %3, i32 noundef %4, i32 noundef %5, ptr noundef %6, ...) #2 {
  %8 = alloca ptr, align 8
  %9 = alloca ptr, align 8
  %10 = alloca ptr, align 8
  %11 = alloca i8, align 1
  %12 = alloca i32, align 4
  %13 = alloca i32, align 4
  %14 = alloca ptr, align 8
  store ptr %0, ptr %8, align 8
  store ptr %1, ptr %9, align 8
  store ptr %2, ptr %10, align 8
  %15 = zext i1 %3 to i8
  store i8 %15, ptr %11, align 1
  store i32 %4, ptr %12, align 4
  store i32 %5, ptr %13, align 4
  store ptr %6, ptr %14, align 8
  ret void
}

; Function Attrs: mustprogress uwtable
define internal void @_ZL20reorder_marks_arabicPK18hb_ot_shape_plan_tP11hb_buffer_tjj(ptr noundef %0, ptr noundef %1, i32 noundef %2, i32 noundef %3) #0 {
  %5 = alloca ptr, align 8
  %6 = alloca ptr, align 8
  %7 = alloca i32, align 4
  %8 = alloca i32, align 4
  %9 = alloca ptr, align 8
  %10 = alloca i32, align 4
  %11 = alloca i32, align 4
  %12 = alloca i32, align 4
  %13 = alloca [32 x %struct.hb_glyph_info_t], align 16
  %14 = alloca i32, align 4
  %15 = alloca i32, align 4
  store ptr %0, ptr %5, align 8
  store ptr %1, ptr %6, align 8
  store i32 %2, ptr %7, align 4
  store i32 %3, ptr %8, align 4
  %16 = load ptr, ptr %6, align 8
  %17 = getelementptr inbounds %struct.hb_buffer_t, ptr %16, i32 0, i32 18
  %18 = load ptr, ptr %17, align 8
  store ptr %18, ptr %9, align 8
  %19 = load ptr, ptr %6, align 8
  %20 = load i32, ptr %7, align 4
  %21 = load i32, ptr %8, align 4
  call void (ptr, ptr, ptr, i1, i32, i32, ptr, ...) @_ZL13_hb_debug_msgILi0EEvPKcPKvS1_bjiS1_z(ptr noundef @.str.40, ptr noundef %19, ptr noundef null, i1 noundef zeroext false, i32 noundef 0, i32 noundef 0, ptr noundef @.str.49, i32 noundef %20, i32 noundef %21)
  %22 = load i32, ptr %7, align 4
  store i32 %22, ptr %10, align 4
  store i32 220, ptr %11, align 4
  br label %23

23:                                               ; preds = %165, %4
  %24 = load i32, ptr %11, align 4
  %25 = icmp ule i32 %24, 230
  br i1 %25, label %26, label %168

26:                                               ; preds = %23
  %27 = load ptr, ptr %6, align 8
  %28 = load i32, ptr %11, align 4
  %29 = load i32, ptr %10, align 4
  call void (ptr, ptr, ptr, i1, i32, i32, ptr, ...) @_ZL13_hb_debug_msgILi0EEvPKcPKvS1_bjiS1_z(ptr noundef @.str.40, ptr noundef %27, ptr noundef null, i1 noundef zeroext false, i32 noundef 0, i32 noundef 0, ptr noundef @.str.50, i32 noundef %28, i32 noundef %29)
  br label %30

30:                                               ; preds = %44, %26
  %31 = load i32, ptr %10, align 4
  %32 = load i32, ptr %8, align 4
  %33 = icmp ult i32 %31, %32
  br i1 %33, label %34, label %42

34:                                               ; preds = %30
  %35 = load ptr, ptr %9, align 8
  %36 = load i32, ptr %10, align 4
  %37 = zext i32 %36 to i64
  %38 = getelementptr inbounds %struct.hb_glyph_info_t, ptr %35, i64 %37
  %39 = call noundef i32 @_ZL43_hb_glyph_info_get_modified_combining_classPK15hb_glyph_info_t(ptr noundef %38)
  %40 = load i32, ptr %11, align 4
  %41 = icmp ult i32 %39, %40
  br label %42

42:                                               ; preds = %34, %30
  %43 = phi i1 [ false, %30 ], [ %41, %34 ]
  br i1 %43, label %44, label %47

44:                                               ; preds = %42
  %45 = load i32, ptr %10, align 4
  %46 = add i32 %45, 1
  store i32 %46, ptr %10, align 4
  br label %30, !llvm.loop !15

47:                                               ; preds = %42
  %48 = load ptr, ptr %6, align 8
  %49 = load i32, ptr %11, align 4
  %50 = load i32, ptr %10, align 4
  call void (ptr, ptr, ptr, i1, i32, i32, ptr, ...) @_ZL13_hb_debug_msgILi0EEvPKcPKvS1_bjiS1_z(ptr noundef @.str.40, ptr noundef %48, ptr noundef null, i1 noundef zeroext false, i32 noundef 0, i32 noundef 0, ptr noundef @.str.51, i32 noundef %49, i32 noundef %50)
  %51 = load i32, ptr %10, align 4
  %52 = load i32, ptr %8, align 4
  %53 = icmp eq i32 %51, %52
  br i1 %53, label %54, label %55

54:                                               ; preds = %47
  br label %168

55:                                               ; preds = %47
  %56 = load ptr, ptr %9, align 8
  %57 = load i32, ptr %10, align 4
  %58 = zext i32 %57 to i64
  %59 = getelementptr inbounds %struct.hb_glyph_info_t, ptr %56, i64 %58
  %60 = call noundef i32 @_ZL43_hb_glyph_info_get_modified_combining_classPK15hb_glyph_info_t(ptr noundef %59)
  %61 = load i32, ptr %11, align 4
  %62 = icmp ugt i32 %60, %61
  br i1 %62, label %63, label %64

63:                                               ; preds = %55
  br label %165

64:                                               ; preds = %55
  %65 = load i32, ptr %10, align 4
  store i32 %65, ptr %12, align 4
  br label %66

66:                                               ; preds = %86, %64
  %67 = load i32, ptr %12, align 4
  %68 = load i32, ptr %8, align 4
  %69 = icmp ult i32 %67, %68
  br i1 %69, label %70, label %84

70:                                               ; preds = %66
  %71 = load ptr, ptr %9, align 8
  %72 = load i32, ptr %12, align 4
  %73 = zext i32 %72 to i64
  %74 = getelementptr inbounds %struct.hb_glyph_info_t, ptr %71, i64 %73
  %75 = call noundef i32 @_ZL43_hb_glyph_info_get_modified_combining_classPK15hb_glyph_info_t(ptr noundef %74)
  %76 = load i32, ptr %11, align 4
  %77 = icmp eq i32 %75, %76
  br i1 %77, label %78, label %84

78:                                               ; preds = %70
  %79 = load ptr, ptr %9, align 8
  %80 = load i32, ptr %12, align 4
  %81 = zext i32 %80 to i64
  %82 = getelementptr inbounds %struct.hb_glyph_info_t, ptr %79, i64 %81
  %83 = call noundef zeroext i1 @_ZL11info_is_mcmRK15hb_glyph_info_t(ptr noundef nonnull align 4 dereferenceable(20) %82)
  br label %84

84:                                               ; preds = %78, %70, %66
  %85 = phi i1 [ false, %70 ], [ false, %66 ], [ %83, %78 ]
  br i1 %85, label %86, label %89

86:                                               ; preds = %84
  %87 = load i32, ptr %12, align 4
  %88 = add i32 %87, 1
  store i32 %88, ptr %12, align 4
  br label %66, !llvm.loop !16

89:                                               ; preds = %84
  %90 = load i32, ptr %10, align 4
  %91 = load i32, ptr %12, align 4
  %92 = icmp eq i32 %90, %91
  br i1 %92, label %93, label %94

93:                                               ; preds = %89
  br label %165

94:                                               ; preds = %89
  %95 = load ptr, ptr %6, align 8
  %96 = load i32, ptr %11, align 4
  %97 = load i32, ptr %10, align 4
  %98 = load i32, ptr %12, align 4
  call void (ptr, ptr, ptr, i1, i32, i32, ptr, ...) @_ZL13_hb_debug_msgILi0EEvPKcPKvS1_bjiS1_z(ptr noundef @.str.40, ptr noundef %95, ptr noundef null, i1 noundef zeroext false, i32 noundef 0, i32 noundef 0, ptr noundef @.str.52, i32 noundef %96, i32 noundef %97, i32 noundef %98)
  %99 = load ptr, ptr %6, align 8
  %100 = load i32, ptr %11, align 4
  %101 = load i32, ptr %10, align 4
  %102 = load i32, ptr %12, align 4
  call void (ptr, ptr, ptr, i1, i32, i32, ptr, ...) @_ZL13_hb_debug_msgILi0EEvPKcPKvS1_bjiS1_z(ptr noundef @.str.40, ptr noundef %99, ptr noundef null, i1 noundef zeroext false, i32 noundef 0, i32 noundef 0, ptr noundef @.str.53, i32 noundef %100, i32 noundef %101, i32 noundef %102)
  %103 = load ptr, ptr %6, align 8
  %104 = load i32, ptr %7, align 4
  %105 = load i32, ptr %12, align 4
  call void @_ZN11hb_buffer_t14merge_clustersEjj(ptr noundef nonnull align 8 dereferenceable(220) %103, i32 noundef %104, i32 noundef %105)
  %106 = getelementptr inbounds [32 x %struct.hb_glyph_info_t], ptr %13, i64 0, i64 0
  %107 = load ptr, ptr %9, align 8
  %108 = load i32, ptr %10, align 4
  %109 = zext i32 %108 to i64
  %110 = getelementptr inbounds %struct.hb_glyph_info_t, ptr %107, i64 %109
  %111 = load i32, ptr %12, align 4
  %112 = load i32, ptr %10, align 4
  %113 = sub i32 %111, %112
  %114 = zext i32 %113 to i64
  %115 = mul i64 %114, 20
  call void @llvm.memmove.p0.p0.i64(ptr align 16 %106, ptr align 4 %110, i64 %115, i1 false)
  %116 = load ptr, ptr %9, align 8
  %117 = load i32, ptr %7, align 4
  %118 = load i32, ptr %12, align 4
  %119 = add i32 %117, %118
  %120 = load i32, ptr %10, align 4
  %121 = sub i32 %119, %120
  %122 = zext i32 %121 to i64
  %123 = getelementptr inbounds %struct.hb_glyph_info_t, ptr %116, i64 %122
  %124 = load ptr, ptr %9, align 8
  %125 = load i32, ptr %7, align 4
  %126 = zext i32 %125 to i64
  %127 = getelementptr inbounds %struct.hb_glyph_info_t, ptr %124, i64 %126
  %128 = load i32, ptr %10, align 4
  %129 = load i32, ptr %7, align 4
  %130 = sub i32 %128, %129
  %131 = zext i32 %130 to i64
  %132 = mul i64 %131, 20
  call void @llvm.memmove.p0.p0.i64(ptr align 4 %123, ptr align 4 %127, i64 %132, i1 false)
  %133 = load ptr, ptr %9, align 8
  %134 = load i32, ptr %7, align 4
  %135 = zext i32 %134 to i64
  %136 = getelementptr inbounds %struct.hb_glyph_info_t, ptr %133, i64 %135
  %137 = getelementptr inbounds [32 x %struct.hb_glyph_info_t], ptr %13, i64 0, i64 0
  %138 = load i32, ptr %12, align 4
  %139 = load i32, ptr %10, align 4
  %140 = sub i32 %138, %139
  %141 = zext i32 %140 to i64
  %142 = mul i64 %141, 20
  call void @llvm.memmove.p0.p0.i64(ptr align 4 %136, ptr align 16 %137, i64 %142, i1 false)
  %143 = load i32, ptr %7, align 4
  %144 = load i32, ptr %12, align 4
  %145 = add i32 %143, %144
  %146 = load i32, ptr %10, align 4
  %147 = sub i32 %145, %146
  store i32 %147, ptr %14, align 4
  %148 = load i32, ptr %11, align 4
  %149 = icmp eq i32 %148, 220
  %150 = select i1 %149, i32 25, i32 26
  store i32 %150, ptr %15, align 4
  br label %151

151:                                              ; preds = %155, %94
  %152 = load i32, ptr %7, align 4
  %153 = load i32, ptr %14, align 4
  %154 = icmp ult i32 %152, %153
  br i1 %154, label %155, label %163

155:                                              ; preds = %151
  %156 = load ptr, ptr %9, align 8
  %157 = load i32, ptr %7, align 4
  %158 = zext i32 %157 to i64
  %159 = getelementptr inbounds %struct.hb_glyph_info_t, ptr %156, i64 %158
  %160 = load i32, ptr %15, align 4
  call void @_ZL43_hb_glyph_info_set_modified_combining_classP15hb_glyph_info_tj(ptr noundef %159, i32 noundef %160)
  %161 = load i32, ptr %7, align 4
  %162 = add i32 %161, 1
  store i32 %162, ptr %7, align 4
  br label %151, !llvm.loop !17

163:                                              ; preds = %151
  %164 = load i32, ptr %12, align 4
  store i32 %164, ptr %10, align 4
  br label %165

165:                                              ; preds = %163, %93, %63
  %166 = load i32, ptr %11, align 4
  %167 = add i32 %166, 10
  store i32 %167, ptr %11, align 4
  br label %23, !llvm.loop !18

168:                                              ; preds = %54, %23
  ret void
}