; Function Attrs: mustprogress uwtable
define internal void @_ZL20reorder_marks_arabicPK18hb_ot_shape_plan_tP11hb_buffer_tjj(ptr nocapture readnone %0, ptr noundef %1, i32 noundef %2, i32 noundef %3) #4 {
  %5 = alloca [32 x %struct.hb_glyph_info_t], align 16
  %6 = getelementptr inbounds i8, ptr %1, i64 104
  %7 = load ptr, ptr %6, align 8
  %8 = zext i32 %3 to i64
  br label %.preheader86

.preheader86:                                     ; preds = %4, %.loopexit
  %.0106 = phi i32 [ %2, %4 ], [ %.2, %.loopexit ]
  %.074105 = phi i32 [ %2, %4 ], [ %.276, %.loopexit ]
  %.078104 = phi i32 [ 220, %4 ], [ %83, %.loopexit ]
  %9 = icmp ult i32 %.074105, %3
  br i1 %9, label %.lr.ph.preheader, label %.critedge

.lr.ph.preheader:                                 ; preds = %.preheader86
  %10 = zext i32 %.074105 to i64
  br label %.lr.ph

.lr.ph:                                           ; preds = %.lr.ph.preheader, %20
  %indvars.iv = phi i64 [ %10, %.lr.ph.preheader ], [ %indvars.iv.next, %20 ]
  %11 = getelementptr %struct.hb_glyph_info_t, ptr %7, i64 %indvars.iv, i32 4
  %.val = load i16, ptr %11, align 4
  %12 = and i16 %.val, 31
  %13 = zext nneg i16 %12 to i32
  %14 = shl nuw i32 1, %13
  %15 = and i32 %14, 7168
  %.not.i = icmp eq i32 %15, 0
  %16 = lshr i16 %.val, 8
  %17 = zext nneg i16 %16 to i32
  %18 = icmp ugt i32 %.078104, %17
  %19 = select i1 %.not.i, i1 true, i1 %18
  br i1 %19, label %20, label %.critedge.loopexit

20:                                               ; preds = %.lr.ph
  %indvars.iv.next = add nuw nsw i64 %indvars.iv, 1
  %exitcond.not = icmp eq i64 %indvars.iv.next, %8
  br i1 %exitcond.not, label %.critedge.thread, label %.lr.ph, !llvm.loop !31

.critedge.loopexit:                               ; preds = %.lr.ph
  %21 = trunc nuw i64 %indvars.iv to i32
  br label %.critedge

.critedge:                                        ; preds = %.critedge.loopexit, %.preheader86
  %.175.lcssa = phi i32 [ %.074105, %.preheader86 ], [ %21, %.critedge.loopexit ]
  %22 = icmp eq i32 %.175.lcssa, %3
  br i1 %22, label %.critedge.thread, label %23

23:                                               ; preds = %.critedge
  %24 = zext i32 %.175.lcssa to i64
  %25 = getelementptr inbounds %struct.hb_glyph_info_t, ptr %7, i64 %24
  %26 = getelementptr i8, ptr %25, i64 16
  %.val80 = load i16, ptr %26, align 4
  %27 = and i16 %.val80, 31
  %28 = zext nneg i16 %27 to i32
  %29 = shl nuw i32 1, %28
  %30 = and i32 %29, 7168
  %.not.i83 = icmp ne i32 %30, 0
  %31 = lshr i16 %.val80, 8
  %32 = zext nneg i16 %31 to i32
  %33 = icmp ult i32 %.078104, %32
  %34 = select i1 %.not.i83, i1 %33, i1 false
  br i1 %34, label %.loopexit, label %.preheader

.preheader:                                       ; preds = %23
  %35 = icmp ult i32 %.175.lcssa, %3
  br i1 %35, label %.lr.ph96, label %.critedge2

.lr.ph96:                                         ; preds = %.preheader, %.critedge107
  %.07795 = phi i32 [ %54, %.critedge107 ], [ %.175.lcssa, %.preheader ]
  %36 = zext i32 %.07795 to i64
  %37 = getelementptr inbounds %struct.hb_glyph_info_t, ptr %7, i64 %36
  %38 = getelementptr i8, ptr %37, i64 16
  %.val81 = load i16, ptr %38, align 4
  %39 = and i16 %.val81, 31
  %40 = zext nneg i16 %39 to i32
  %41 = shl nuw i32 1, %40
  %42 = and i32 %41, 7168
  %.not.i84 = icmp ne i32 %42, 0
  %43 = lshr i16 %.val81, 8
  %44 = zext nneg i16 %43 to i32
  %45 = icmp eq i32 %.078104, %44
  %46 = select i1 %.not.i84, i1 %45, i1 false
  br i1 %46, label %47, label %.critedge2

47:                                               ; preds = %.lr.ph96
  %.val82 = load i32, ptr %37, align 4
  %48 = icmp eq i32 %.val82, 1620
  br i1 %48, label %.critedge107, label %.lr.ph91

.lr.ph91:                                         ; preds = %47, %49
  %indvars.iv.i90 = phi i64 [ %indvars.iv.next.i, %49 ], [ 0, %47 ]
  %indvars.iv.next.i = add nuw nsw i64 %indvars.iv.i90, 1
  %exitcond.not.i = icmp eq i64 %indvars.iv.next.i, 14
  br i1 %exitcond.not.i, label %.critedge2, label %49, !llvm.loop !32

49:                                               ; preds = %.lr.ph91
  %50 = getelementptr inbounds [14 x i32], ptr @_ZL24modifier_combining_marks, i64 0, i64 %indvars.iv.next.i
  %51 = load i32, ptr %50, align 4
  %52 = icmp eq i32 %51, %.val82
  br i1 %52, label %_ZL11info_is_mcmRK15hb_glyph_info_t.exit, label %.lr.ph91, !llvm.loop !32

_ZL11info_is_mcmRK15hb_glyph_info_t.exit:         ; preds = %49
  %53 = icmp ult i64 %indvars.iv.i90, 13
  br i1 %53, label %.critedge107, label %.critedge2

.critedge107:                                     ; preds = %47, %_ZL11info_is_mcmRK15hb_glyph_info_t.exit
  %54 = add nuw i32 %.07795, 1
  %exitcond110.not = icmp eq i32 %54, %3
  br i1 %exitcond110.not, label %.critedge2, label %.lr.ph96, !llvm.loop !33

.critedge2:                                       ; preds = %_ZL11info_is_mcmRK15hb_glyph_info_t.exit, %.critedge107, %.lr.ph96, %.lr.ph91, %.preheader
  %.077.lcssa = phi i32 [ %.175.lcssa, %.preheader ], [ %.07795, %.lr.ph91 ], [ %.07795, %.lr.ph96 ], [ %3, %.critedge107 ], [ %.07795, %_ZL11info_is_mcmRK15hb_glyph_info_t.exit ]
  %55 = icmp eq i32 %.175.lcssa, %.077.lcssa
  br i1 %55, label %.loopexit, label %56

56:                                               ; preds = %.critedge2
  %57 = sub i32 %.077.lcssa, %.0106
  %58 = icmp ult i32 %57, 2
  br i1 %58, label %_ZN11hb_buffer_t14merge_clustersEjj.exit, label %59

59:                                               ; preds = %56
  tail call void @_ZN11hb_buffer_t19merge_clusters_implEjj(ptr noundef nonnull align 8 dereferenceable(220) %1, i32 noundef %.0106, i32 noundef %.077.lcssa)
  br label %_ZN11hb_buffer_t14merge_clustersEjj.exit

_ZN11hb_buffer_t14merge_clustersEjj.exit:         ; preds = %56, %59
  %60 = sub i32 %.077.lcssa, %.175.lcssa
  %61 = zext i32 %60 to i64
  %62 = mul nuw nsw i64 %61, 20
  call void @llvm.memcpy.p0.p0.i64(ptr nonnull align 16 %5, ptr align 4 %25, i64 %62, i1 false)
  %63 = sub i32 %.0106, %.175.lcssa
  %64 = add i32 %63, %.077.lcssa
  %65 = zext i32 %64 to i64
  %66 = getelementptr inbounds %struct.hb_glyph_info_t, ptr %7, i64 %65
  %67 = zext i32 %.0106 to i64
  %68 = getelementptr inbounds %struct.hb_glyph_info_t, ptr %7, i64 %67
  %69 = sub i32 %.175.lcssa, %.0106
  %70 = zext i32 %69 to i64
  %71 = mul nuw nsw i64 %70, 20
  tail call void @llvm.memmove.p0.p0.i64(ptr align 4 %66, ptr align 4 %68, i64 %71, i1 false)
  call void @llvm.memcpy.p0.p0.i64(ptr align 4 %68, ptr nonnull align 16 %5, i64 %62, i1 false)
  %72 = icmp ult i32 %.0106, %64
  br i1 %72, label %.lr.ph102, label %.loopexit

.lr.ph102:                                        ; preds = %_ZN11hb_buffer_t14merge_clustersEjj.exit
  %73 = icmp eq i32 %.078104, 220
  %.tr.i = select i1 %73, i16 6400, i16 6656
  br label %74

74:                                               ; preds = %.lr.ph102, %_ZL43_hb_glyph_info_set_modified_combining_classP15hb_glyph_info_tj.exit
  %indvars.iv111 = phi i64 [ %67, %.lr.ph102 ], [ %indvars.iv.next112, %_ZL43_hb_glyph_info_set_modified_combining_classP15hb_glyph_info_tj.exit ]
  %75 = getelementptr %struct.hb_glyph_info_t, ptr %7, i64 %indvars.iv111, i32 4
  %.val.i = load i16, ptr %75, align 4
  %76 = and i16 %.val.i, 31
  %77 = zext nneg i16 %76 to i32
  %78 = shl nuw i32 1, %77
  %79 = and i32 %78, 7168
  %.not.i85 = icmp eq i32 %79, 0
  br i1 %.not.i85, label %_ZL43_hb_glyph_info_set_modified_combining_classP15hb_glyph_info_tj.exit, label %80

80:                                               ; preds = %74
  %81 = and i16 %.val.i, 255
  %82 = or disjoint i16 %81, %.tr.i
  store i16 %82, ptr %75, align 4
  br label %_ZL43_hb_glyph_info_set_modified_combining_classP15hb_glyph_info_tj.exit

_ZL43_hb_glyph_info_set_modified_combining_classP15hb_glyph_info_tj.exit: ; preds = %74, %80
  %indvars.iv.next112 = add nuw nsw i64 %indvars.iv111, 1
  %exitcond114.not = icmp eq i64 %indvars.iv.next112, %65
  br i1 %exitcond114.not, label %.loopexit, label %74, !llvm.loop !34

.loopexit:                                        ; preds = %_ZL43_hb_glyph_info_set_modified_combining_classP15hb_glyph_info_tj.exit, %_ZN11hb_buffer_t14merge_clustersEjj.exit, %.critedge2, %23
  %.276 = phi i32 [ %.175.lcssa, %23 ], [ %.175.lcssa, %.critedge2 ], [ %.077.lcssa, %_ZN11hb_buffer_t14merge_clustersEjj.exit ], [ %.077.lcssa, %_ZL43_hb_glyph_info_set_modified_combining_classP15hb_glyph_info_tj.exit ]
  %.2 = phi i32 [ %.0106, %23 ], [ %.0106, %.critedge2 ], [ %.0106, %_ZN11hb_buffer_t14merge_clustersEjj.exit ], [ %64, %_ZL43_hb_glyph_info_set_modified_combining_classP15hb_glyph_info_tj.exit ]
  %83 = add nuw nsw i32 %.078104, 10
  %84 = icmp ult i32 %.078104, 221
  br i1 %84, label %.preheader86, label %.critedge.thread, !llvm.loop !35

.critedge.thread:                                 ; preds = %.critedge, %.loopexit, %20
  ret void
}